target datalayout = "e-m:e-p270:32:32-p271:32:32-p272:64:64-i64:64-i128:128-f80:128-n8:16:32:64-S128"
target triple = "x86_64-unknown-linux-gnu"

%"struct.msdfgen::Vector2" = type { double, double }
%"class.msdfgen::EdgeSegment.base" = type <{ ptr, i32 }>
%"class.msdfgen::QuadraticSegment" = type { %"class.msdfgen::EdgeSegment.base", [3 x %"struct.msdfgen::Vector2"] }

; Function Attrs: mustprogress nounwind uwtable
define linkonce_odr dso_local void @_ZN7msdfgen7Vector2C2Edd(ptr noundef nonnull align 8 dereferenceable(16) %this, double noundef %x, double noundef %y) unnamed_addr #4 comdat align 2 {
entry:
  %this.addr = alloca ptr, align 8
  %x.addr = alloca double, align 8
  %y.addr = alloca double, align 8
  store ptr %this, ptr %this.addr, align 8
  store double %x, ptr %x.addr, align 8
  store double %y, ptr %y.addr, align 8
  %this1 = load ptr, ptr %this.addr, align 8
  %x2 = getelementptr inbounds %"struct.msdfgen::Vector2", ptr %this1, i32 0, i32 0
  %0 = load double, ptr %x.addr, align 8
  store double %0, ptr %x2, align 8
  %y3 = getelementptr inbounds %"struct.msdfgen::Vector2", ptr %this1, i32 0, i32 1
  %1 = load double, ptr %y.addr, align 8
  store double %1, ptr %y3, align 8
  ret void
}

; Function Attrs: mustprogress nounwind uwtable
define linkonce_odr dso_local noundef double @_ZN7msdfgen12crossProductENS_7Vector2ES0_(double %a.coerce0, double %a.coerce1, double %b.coerce0, double %b.coerce1) #4 comdat {
entry:
  %a = alloca %"struct.msdfgen::Vector2", align 8
  %b = alloca %"struct.msdfgen::Vector2", align 8
  %0 = getelementptr inbounds { double, double }, ptr %a, i32 0, i32 0
  store double %a.coerce0, ptr %0, align 8
  %1 = getelementptr inbounds { double, double }, ptr %a, i32 0, i32 1
  store double %a.coerce1, ptr %1, align 8
  %2 = getelementptr inbounds { double, double }, ptr %b, i32 0, i32 0
  store double %b.coerce0, ptr %2, align 8
  %3 = getelementptr inbounds { double, double }, ptr %b, i32 0, i32 1
  store double %b.coerce1, ptr %3, align 8
  %x = getelementptr inbounds %"struct.msdfgen::Vector2", ptr %a, i32 0, i32 0
  %4 = load double, ptr %x, align 8
  %y = getelementptr inbounds %"struct.msdfgen::Vector2", ptr %b, i32 0, i32 1
  %5 = load double, ptr %y, align 8
  %y1 = getelementptr inbounds %"struct.msdfgen::Vector2", ptr %a, i32 0, i32 1
  %6 = load double, ptr %y1, align 8
  %x2 = getelementptr inbounds %"struct.msdfgen::Vector2", ptr %b, i32 0, i32 0
  %7 = load double, ptr %x2, align 8
  %mul3 = fmul double %6, %7
  %neg = fneg double %mul3
  %8 = call double @llvm.fmuladd.f64(double %4, double %5, double %neg)
  ret double %8
}

; Function Attrs: mustprogress nounwind uwtable
define linkonce_odr dso_local noundef double @_ZN7msdfgen10dotProductENS_7Vector2ES0_(double %a.coerce0, double %a.coerce1, double %b.coerce0, double %b.coerce1) #4 comdat {
entry:
  %a = alloca %"struct.msdfgen::Vector2", align 8
  %b = alloca %"struct.msdfgen::Vector2", align 8
  %0 = getelementptr inbounds { double, double }, ptr %a, i32 0, i32 0
  store double %a.coerce0, ptr %0, align 8
  %1 = getelementptr inbounds { double, double }, ptr %a, i32 0, i32 1
  store double %a.coerce1, ptr %1, align 8
  %2 = getelementptr inbounds { double, double }, ptr %b, i32 0, i32 0
  store double %b.coerce0, ptr %2, align 8
  %3 = getelementptr inbounds { double, double }, ptr %b, i32 0, i32 1
  store double %b.coerce1, ptr %3, align 8
  %x = getelementptr inbounds %"struct.msdfgen::Vector2", ptr %a, i32 0, i32 0
  %4 = load double, ptr %x, align 8
  %x1 = getelementptr inbounds %"struct.msdfgen::Vector2", ptr %b, i32 0, i32 0
  %5 = load double, ptr %x1, align 8
  %y = getelementptr inbounds %"struct.msdfgen::Vector2", ptr %a, i32 0, i32 1
  %6 = load double, ptr %y, align 8
  %y2 = getelementptr inbounds %"struct.msdfgen::Vector2", ptr %b, i32 0, i32 1
  %7 = load double, ptr %y2, align 8
  %mul3 = fmul double %6, %7
  %8 = call double @llvm.fmuladd.f64(double %4, double %5, double %mul3)
  ret double %8
}

; Function Attrs: mustprogress uwtable
define linkonce_odr dso_local { double, double } @_ZN7msdfgenmiENS_7Vector2ES0_(double %a.coerce0, double %a.coerce1, double %b.coerce0, double %b.coerce1) #0 comdat {
entry:
  %retval = alloca %"struct.msdfgen::Vector2", align 8
  %a = alloca %"struct.msdfgen::Vector2", align 8
  %b = alloca %"struct.msdfgen::Vector2", align 8
  %0 = getelementptr inbounds { double, double }, ptr %a, i32 0, i32 0
  store double %a.coerce0, ptr %0, align 8
  %1 = getelementptr inbounds { double, double }, ptr %a, i32 0, i32 1
  store double %a.coerce1, ptr %1, align 8
  %2 = getelementptr inbounds { double, double }, ptr %b, i32 0, i32 0
  store double %b.coerce0, ptr %2, align 8
  %3 = getelementptr inbounds { double, double }, ptr %b, i32 0, i32 1
  store double %b.coerce1, ptr %3, align 8
  %x = getelementptr inbounds %"struct.msdfgen::Vector2", ptr %a, i32 0, i32 0
  %4 = load double, ptr %x, align 8
  %x1 = getelementptr inbounds %"struct.msdfgen::Vector2", ptr %b, i32 0, i32 0
  %5 = load double, ptr %x1, align 8
  %sub = fsub double %4, %5
  %y = getelementptr inbounds %"struct.msdfgen::Vector2", ptr %a, i32 0, i32 1
  %6 = load double, ptr %y, align 8
  %y2 = getelementptr inbounds %"struct.msdfgen::Vector2", ptr %b, i32 0, i32 1
  %7 = load double, ptr %y2, align 8
  %sub3 = fsub double %6, %7
  call void @_ZN7msdfgen7Vector2C2Edd(ptr noundef nonnull align 8 dereferenceable(16) %retval, double noundef %sub, double noundef %sub3)
  %8 = load { double, double }, ptr %retval, align 8
  ret { double, double } %8
}

; Function Attrs: mustprogress uwtable
define dso_local noundef double @_ZNK7msdfgen16QuadraticSegment6lengthEv(ptr noundef nonnull align 8 dereferenceable(64) %this) #0 align 2 {
entry:
  %this.addr = alloca ptr, align 8
  %ab = alloca %"struct.msdfgen::Vector2", align 8
  %agg.tmp = alloca %"struct.msdfgen::Vector2", align 8
  %agg.tmp2 = alloca %"struct.msdfgen::Vector2", align 8
  %br = alloca %"struct.msdfgen::Vector2", align 8
  %agg.tmp5 = alloca %"struct.msdfgen::Vector2", align 8
  %agg.tmp6 = alloca %"struct.msdfgen::Vector2", align 8
  %agg.tmp9 = alloca %"struct.msdfgen::Vector2", align 8
  %agg.tmp13 = alloca %"struct.msdfgen::Vector2", align 8
  %abab = alloca double, align 8
  %agg.tmp15 = alloca %"struct.msdfgen::Vector2", align 8
  %agg.tmp16 = alloca %"struct.msdfgen::Vector2", align 8
  %abbr = alloca double, align 8
  %agg.tmp18 = alloca %"struct.msdfgen::Vector2", align 8
  %agg.tmp19 = alloca %"struct.msdfgen::Vector2", align 8
  %brbr = alloca double, align 8
  %agg.tmp21 = alloca %"struct.msdfgen::Vector2", align 8
  %agg.tmp22 = alloca %"struct.msdfgen::Vector2", align 8
  %abLen = alloca double, align 8
  %brLen = alloca double, align 8
  %crs = alloca double, align 8
  %agg.tmp26 = alloca %"struct.msdfgen::Vector2", align 8
  %agg.tmp27 = alloca %"struct.msdfgen::Vector2", align 8
  %h = alloca double, align 8
  store ptr %this, ptr %this.addr, align 8
  %this1 = load ptr, ptr %this.addr, align 8
  %p = getelementptr inbounds %"class.msdfgen::QuadraticSegment", ptr %this1, i32 0, i32 1
  %arrayidx = getelementptr inbounds [3 x %"struct.msdfgen::Vector2"], ptr %p, i64 0, i64 1
  call void @llvm.memcpy.p0.p0.i64(ptr align 8 %agg.tmp, ptr align 8 %arrayidx, i64 16, i1 false)
  %p3 = getelementptr inbounds %"class.msdfgen::QuadraticSegment", ptr %this1, i32 0, i32 1
  %arrayidx4 = getelementptr inbounds [3 x %"struct.msdfgen::Vector2"], ptr %p3, i64 0, i64 0
  call void @llvm.memcpy.p0.p0.i64(ptr align 8 %agg.tmp2, ptr align 8 %arrayidx4, i64 16, i1 false)
  %0 = getelementptr inbounds { double, double }, ptr %agg.tmp, i32 0, i32 0
  %1 = load double, ptr %0, align 8
  %2 = getelementptr inbounds { double, double }, ptr %agg.tmp, i32 0, i32 1
  %3 = load double, ptr %2, align 8
  %4 = getelementptr inbounds { double, double }, ptr %agg.tmp2, i32 0, i32 0
  %5 = load double, ptr %4, align 8
  %6 = getelementptr inbounds { double, double }, ptr %agg.tmp2, i32 0, i32 1
  %7 = load double, ptr %6, align 8
  %call = call { double, double } @_ZN7msdfgenmiENS_7Vector2ES0_(double %1, double %3, double %5, double %7)
  %8 = getelementptr inbounds { double, double }, ptr %ab, i32 0, i32 0
  %9 = extractvalue { double, double } %call, 0
  store double %9, ptr %8, align 8
  %10 = getelementptr inbounds { double, double }, ptr %ab, i32 0, i32 1
  %11 = extractvalue { double, double } %call, 1
  store double %11, ptr %10, align 8
  %p7 = getelementptr inbounds %"class.msdfgen::QuadraticSegment", ptr %this1, i32 0, i32 1
  %arrayidx8 = getelementptr inbounds [3 x %"struct.msdfgen::Vector2"], ptr %p7, i64 0, i64 2
  call void @llvm.memcpy.p0.p0.i64(ptr align 8 %agg.tmp6, ptr align 8 %arrayidx8, i64 16, i1 false)
  %p10 = getelementptr inbounds %"class.msdfgen::QuadraticSegment", ptr %this1, i32 0, i32 1
  %arrayidx11 = getelementptr inbounds [3 x %"struct.msdfgen::Vector2"], ptr %p10, i64 0, i64 1
  call void @llvm.memcpy.p0.p0.i64(ptr align 8 %agg.tmp9, ptr align 8 %arrayidx11, i64 16, i1 false)
  %12 = getelementptr inbounds { double, double }, ptr %agg.tmp6, i32 0, i32 0
  %13 = load double, ptr %12, align 8
  %14 = getelementptr inbounds { double, double }, ptr %agg.tmp6, i32 0, i32 1
  %15 = load double, ptr %14, align 8
  %16 = getelementptr inbounds { double, double }, ptr %agg.tmp9, i32 0, i32 0
  %17 = load double, ptr %16, align 8
  %18 = getelementptr inbounds { double, double }, ptr %agg.tmp9, i32 0, i32 1
  %19 = load double, ptr %18, align 8
  %call12 = call { double, double } @_ZN7msdfgenmiENS_7Vector2ES0_(double %13, double %15, double %17, double %19)
  %20 = getelementptr inbounds { double, double }, ptr %agg.tmp5, i32 0, i32 0
  %21 = extractvalue { double, double } %call12, 0
  store double %21, ptr %20, align 8
  %22 = getelementptr inbounds { double, double }, ptr %agg.tmp5, i32 0, i32 1
  %23 = extractvalue { double, double } %call12, 1
  store double %23, ptr %22, align 8
  call void @llvm.memcpy.p0.p0.i64(ptr align 8 %agg.tmp13, ptr align 8 %ab, i64 16, i1 false)
  %24 = getelementptr inbounds { double, double }, ptr %agg.tmp5, i32 0, i32 0
  %25 = load double, ptr %24, align 8
  %26 = getelementptr inbounds { double, double }, ptr %agg.tmp5, i32 0, i32 1
  %27 = load double, ptr %26, align 8
  %28 = getelementptr inbounds { double, double }, ptr %agg.tmp13, i32 0, i32 0
  %29 = load double, ptr %28, align 8
  %30 = getelementptr inbounds { double, double }, ptr %agg.tmp13, i32 0, i32 1
  %31 = load double, ptr %30, align 8
  %call14 = call { double, double } @_ZN7msdfgenmiENS_7Vector2ES0_(double %25, double %27, double %29, double %31)
  %32 = getelementptr inbounds { double, double }, ptr %br, i32 0, i32 0
  %33 = extractvalue { double, double } %call14, 0
  store double %33, ptr %32, align 8
  %34 = getelementptr inbounds { double, double }, ptr %br, i32 0, i32 1
  %35 = extractvalue { double, double } %call14, 1
  store double %35, ptr %34, align 8
  call void @llvm.memcpy.p0.p0.i64(ptr align 8 %agg.tmp15, ptr align 8 %ab, i64 16, i1 false)
  call void @llvm.memcpy.p0.p0.i64(ptr align 8 %agg.tmp16, ptr align 8 %ab, i64 16, i1 false)
  %36 = getelementptr inbounds { double, double }, ptr %agg.tmp15, i32 0, i32 0
  %37 = load double, ptr %36, align 8
  %38 = getelementptr inbounds { double, double }, ptr %agg.tmp15, i32 0, i32 1
  %39 = load double, ptr %38, align 8
  %40 = getelementptr inbounds { double, double }, ptr %agg.tmp16, i32 0, i32 0
  %41 = load double, ptr %40, align 8
  %42 = getelementptr inbounds { double, double }, ptr %agg.tmp16, i32 0, i32 1
  %43 = load double, ptr %42, align 8
  %call17 = call noundef double @_ZN7msdfgen10dotProductENS_7Vector2ES0_(double %37, double %39, double %41, double %43)
  store double %call17, ptr %abab, align 8
  call void @llvm.memcpy.p0.p0.i64(ptr align 8 %agg.tmp18, ptr align 8 %ab, i64 16, i1 false)
  call void @llvm.memcpy.p0.p0.i64(ptr align 8 %agg.tmp19, ptr align 8 %br, i64 16, i1 false)
  %44 = getelementptr inbounds { double, double }, ptr %agg.tmp18, i32 0, i32 0
  %45 = load double, ptr %44, align 8
  %46 = getelementptr inbounds { double, double }, ptr %agg.tmp18, i32 0, i32 1
  %47 = load double, ptr %46, align 8
  %48 = getelementptr inbounds { double, double }, ptr %agg.tmp19, i32 0, i32 0
  %49 = load double, ptr %48, align 8
  %50 = getelementptr inbounds { double, double }, ptr %agg.tmp19, i32 0, i32 1
  %51 = load double, ptr %50, align 8
  %call20 = call noundef double @_ZN7msdfgen10dotProductENS_7Vector2ES0_(double %45, double %47, double %49, double %51)
  store double %call20, ptr %abbr, align 8
  call void @llvm.memcpy.p0.p0.i64(ptr align 8 %agg.tmp21, ptr align 8 %br, i64 16, i1 false)
  call void @llvm.memcpy.p0.p0.i64(ptr align 8 %agg.tmp22, ptr align 8 %br, i64 16, i1 false)
  %52 = getelementptr inbounds { double, double }, ptr %agg.tmp21, i32 0, i32 0
  %53 = load double, ptr %52, align 8
  %54 = getelementptr inbounds { double, double }, ptr %agg.tmp21, i32 0, i32 1
  %55 = load double, ptr %54, align 8
  %56 = getelementptr inbounds { double, double }, ptr %agg.tmp22, i32 0, i32 0
  %57 = load double, ptr %56, align 8
  %58 = getelementptr inbounds { double, double }, ptr %agg.tmp22, i32 0, i32 1
  %59 = load double, ptr %58, align 8
  %call23 = call noundef double @_ZN7msdfgen10dotProductENS_7Vector2ES0_(double %53, double %55, double %57, double %59)
  store double %call23, ptr %brbr, align 8
  %60 = load double, ptr %abab, align 8
  %call24 = call double @sqrt(double noundef %60) #11
  store double %call24, ptr %abLen, align 8
  %61 = load double, ptr %brbr, align 8
  %call25 = call double @sqrt(double noundef %61) #11
  store double %call25, ptr %brLen, align 8
  call void @llvm.memcpy.p0.p0.i64(ptr align 8 %agg.tmp26, ptr align 8 %ab, i64 16, i1 false)
  call void @llvm.memcpy.p0.p0.i64(ptr align 8 %agg.tmp27, ptr align 8 %br, i64 16, i1 false)
  %62 = getelementptr inbounds { double, double }, ptr %agg.tmp26, i32 0, i32 0
  %63 = load double, ptr %62, align 8
  %64 = getelementptr inbounds { double, double }, ptr %agg.tmp26, i32 0, i32 1
  %65 = load double, ptr %64, align 8
  %66 = getelementptr inbounds { double, double }, ptr %agg.tmp27, i32 0, i32 0
  %67 = load double, ptr %66, align 8
  %68 = getelementptr inbounds { double, double }, ptr %agg.tmp27, i32 0, i32 1
  %69 = load double, ptr %68, align 8
  %call28 = call noundef double @_ZN7msdfgen12crossProductENS_7Vector2ES0_(double %63, double %65, double %67, double %69)
  store double %call28, ptr %crs, align 8
  %70 = load double, ptr %abab, align 8
  %71 = load double, ptr %abbr, align 8
  %add = fadd double %70, %71
  %72 = load double, ptr %abbr, align 8
  %add29 = fadd double %add, %72
  %73 = load double, ptr %brbr, align 8
  %add30 = fadd double %add29, %73
  %call31 = call double @sqrt(double noundef %add30) #11
  store double %call31, ptr %h, align 8
  %74 = load double, ptr %brLen, align 8
  %75 = load double, ptr %abbr, align 8
  %76 = load double, ptr %brbr, align 8
  %add32 = fadd double %75, %76
  %77 = load double, ptr %h, align 8
  %78 = load double, ptr %abbr, align 8
  %79 = load double, ptr %abLen, align 8
  %mul33 = fmul double %78, %79
  %neg = fneg double %mul33
  %80 = call double @llvm.fmuladd.f64(double %add32, double %77, double %neg)
  %81 = load double, ptr %crs, align 8
  %82 = load double, ptr %crs, align 8
  %mul34 = fmul double %81, %82
  %83 = load double, ptr %brLen, align 8
  %84 = load double, ptr %h, align 8
  %85 = load double, ptr %abbr, align 8
  %86 = call double @llvm.fmuladd.f64(double %83, double %84, double %85)
  %87 = load double, ptr %brbr, align 8
  %add36 = fadd double %86, %87
  %88 = load double, ptr %brLen, align 8
  %89 = load double, ptr %abLen, align 8
  %90 = load double, ptr %abbr, align 8
  %91 = call double @llvm.fmuladd.f64(double %88, double %89, double %90)
  %div = fdiv double %add36, %91
  %call38 = call double @log(double noundef %div) #11
  %mul39 = fmul double %mul34, %call38
  %92 = call double @llvm.fmuladd.f64(double %74, double %80, double %mul39)
  %93 = load double, ptr %brbr, align 8
  %94 = load double, ptr %brLen, align 8
  %mul = fmul double %93, %94
  %div40 = fdiv double %92, %mul
  ret double %div40
}