; Function Attrs: mustprogress nofree nounwind willreturn memory(write, argmem: readwrite) uwtable
define dso_local noundef double @_ZNK7msdfgen16QuadraticSegment6lengthEv(ptr nocapture noundef nonnull readonly align 8 dereferenceable(64) %this) local_unnamed_addr #8 align 2 {
entry:
  %p = getelementptr inbounds i8, ptr %this, i64 16
  %arrayidx = getelementptr inbounds i8, ptr %this, i64 32
  %agg.tmp.sroa.0.0.copyload = load double, ptr %arrayidx, align 8
  %agg.tmp.sroa.2.0.arrayidx.sroa_idx = getelementptr inbounds i8, ptr %this, i64 40
  %agg.tmp.sroa.2.0.copyload = load double, ptr %agg.tmp.sroa.2.0.arrayidx.sroa_idx, align 8
  %agg.tmp2.sroa.0.0.copyload = load double, ptr %p, align 8
  %agg.tmp2.sroa.2.0.arrayidx4.sroa_idx = getelementptr inbounds i8, ptr %this, i64 24
  %agg.tmp2.sroa.2.0.copyload = load double, ptr %agg.tmp2.sroa.2.0.arrayidx4.sroa_idx, align 8
  %arrayidx8 = getelementptr inbounds i8, ptr %this, i64 48
  %agg.tmp6.sroa.0.0.copyload = load double, ptr %arrayidx8, align 8
  %agg.tmp6.sroa.2.0.arrayidx8.sroa_idx = getelementptr inbounds i8, ptr %this, i64 56
  %agg.tmp6.sroa.2.0.copyload = load double, ptr %agg.tmp6.sroa.2.0.arrayidx8.sroa_idx, align 8
  %sub.i17 = fsub double %agg.tmp6.sroa.0.0.copyload, %agg.tmp.sroa.0.0.copyload
  %sub3.i18 = fsub double %agg.tmp6.sroa.2.0.copyload, %agg.tmp.sroa.2.0.copyload
  %sub.i = fsub double %agg.tmp.sroa.0.0.copyload, %agg.tmp2.sroa.0.0.copyload
  %sub3.i = fsub double %agg.tmp.sroa.2.0.copyload, %agg.tmp2.sroa.2.0.copyload
  %sub.i21 = fsub double %sub.i17, %sub.i
  %sub3.i22 = fsub double %sub3.i18, %sub3.i
  %mul3.i = fmul double %sub3.i, %sub3.i
  %0 = tail call noundef double @llvm.fmuladd.f64(double %sub.i, double %sub.i, double %mul3.i)
  %1 = insertelement <2 x double> poison, double %sub3.i22, i64 0
  %2 = shufflevector <2 x double> %1, <2 x double> poison, <2 x i32> zeroinitializer
  %3 = insertelement <2 x double> poison, double %sub3.i, i64 0
  %4 = insertelement <2 x double> %3, double %sub3.i22, i64 1
  %5 = fmul <2 x double> %2, %4
  %6 = insertelement <2 x double> poison, double %sub.i, i64 0
  %7 = insertelement <2 x double> %6, double %sub.i21, i64 1
  %8 = shufflevector <2 x double> %7, <2 x double> poison, <2 x i32> <i32 1, i32 1>
  %9 = tail call <2 x double> @llvm.fmuladd.v2f64(<2 x double> %7, <2 x double> %8, <2 x double> %5)
  %sqrt27 = tail call double @llvm.sqrt.f64(double %0)
  %10 = extractelement <2 x double> %9, i64 1
  %sqrt = tail call double @llvm.sqrt.f64(double %10)
  %11 = fneg double %sub3.i
  %neg.i = fmul double %sub.i21, %11
  %12 = tail call noundef double @llvm.fmuladd.f64(double %sub.i, double %sub3.i22, double %neg.i)
  %13 = extractelement <2 x double> %9, i64 0
  %add = fadd double %0, %13
  %add29 = fadd double %13, %add
  %add30 = fadd double %10, %add29
  %call31 = tail call double @sqrt(double noundef %add30) #16
  %add32 = fadd double %13, %10
  %14 = fneg double %13
  %neg = fmul double %sqrt27, %14
  %15 = tail call double @llvm.fmuladd.f64(double %add32, double %call31, double %neg)
  %mul34 = fmul double %12, %12
  %16 = tail call double @llvm.fmuladd.f64(double %sqrt, double %call31, double %13)
  %add36 = fadd double %10, %16
  %17 = tail call double @llvm.fmuladd.f64(double %sqrt, double %sqrt27, double %13)
  %div = fdiv double %add36, %17
  %call38 = tail call double @log(double noundef %div) #16
  %mul39 = fmul double %call38, %mul34
  %18 = tail call double @llvm.fmuladd.f64(double %sqrt, double %15, double %mul39)
  %mul = fmul double %10, %sqrt
  %div40 = fdiv double %18, %mul
  ret double %div40
}